; Function Attrs: nounwind sspstrong uwtable
define internal i64 @rb_struct_to_h(i64 noundef %0) #0 {
  %2 = inttoptr i64 %0 to ptr
  %3 = load i64, ptr %2, align 8, !tbaa !11
  %4 = and i64 %3, 1040384
  %.not.i = icmp eq i64 %4, 0
  br i1 %.not.i, label %8, label %5

5:                                                ; preds = %1
  %6 = lshr i64 %3, 13
  %7 = and i64 %6, 127
  br label %internal_RSTRUCT_LEN.exit

8:                                                ; preds = %1
  %9 = getelementptr inbounds nuw i8, ptr %2, i64 16
  %10 = load i64, ptr %9, align 8, !tbaa !13
  br label %internal_RSTRUCT_LEN.exit

internal_RSTRUCT_LEN.exit:                        ; preds = %5, %8
  %.0.i = phi i64 [ %7, %5 ], [ %10, %8 ]
  %11 = tail call i64 @rb_hash_new_with_size(i64 noundef %.0.i) #19
  %12 = tail call i64 @rb_obj_class(i64 noundef %0) #19
  %13 = tail call i64 @rb_struct_s_members(i64 noundef %12)
  %14 = load i64, ptr %2, align 8, !tbaa !11
  %15 = and i64 %14, 1040384
  %.not.i.i = icmp eq i64 %15, 0
  br i1 %.not.i.i, label %19, label %16

16:                                               ; preds = %internal_RSTRUCT_LEN.exit
  %17 = lshr i64 %14, 13
  %18 = and i64 %17, 127
  br label %internal_RSTRUCT_LEN.exit.i

19:                                               ; preds = %internal_RSTRUCT_LEN.exit
  %20 = getelementptr inbounds nuw i8, ptr %2, i64 16
  %21 = load i64, ptr %20, align 8, !tbaa !13
  br label %internal_RSTRUCT_LEN.exit.i

internal_RSTRUCT_LEN.exit.i:                      ; preds = %19, %16
  %.0.i.i = phi i64 [ %18, %16 ], [ %21, %19 ]
  %22 = inttoptr i64 %13 to ptr
  %23 = load i64, ptr %22, align 8, !tbaa !11
  %24 = and i64 %23, 8192
  %.not.i6.i = icmp eq i64 %24, 0
  br i1 %.not.i6.i, label %28, label %25

25:                                               ; preds = %internal_RSTRUCT_LEN.exit.i
  %26 = lshr i64 %23, 15
  %27 = and i64 %26, 127
  br label %rb_array_len.exit.i

28:                                               ; preds = %internal_RSTRUCT_LEN.exit.i
  %29 = getelementptr inbounds nuw i8, ptr %22, i64 16
  %30 = load i64, ptr %29, align 8, !tbaa !13
  br label %rb_array_len.exit.i

rb_array_len.exit.i:                              ; preds = %28, %25
  %.0.i7.i = phi i64 [ %27, %25 ], [ %30, %28 ]
  %.not.i17 = icmp eq i64 %.0.i.i, %.0.i7.i
  br i1 %.not.i17, label %rb_struct_members.exit, label %31

31:                                               ; preds = %rb_array_len.exit.i
  %32 = load i64, ptr @rb_eTypeError, align 8, !tbaa !7
  %33 = tail call fastcc i64 @internal_RSTRUCT_LEN(i64 noundef %0)
  tail call void (i64, ptr, ...) @rb_raise(i64 noundef %32, ptr noundef nonnull @.str.2, i64 noundef %.0.i7.i, i64 noundef %33) #21
  unreachable

rb_struct_members.exit:                           ; preds = %rb_array_len.exit.i
  %34 = tail call i32 @rb_block_given_p() #19
  %35 = getelementptr inbounds nuw i8, ptr %2, i64 16
  %36 = getelementptr inbounds nuw i8, ptr %2, i64 24
  %.fr = freeze i32 %34
  %.not = icmp eq i32 %.fr, 0
  br i1 %.not, label %rb_struct_members.exit.split.us, label %rb_struct_members.exit.split

rb_struct_members.exit.split.us:                  ; preds = %rb_struct_members.exit, %internal_RSTRUCT_GET.exit.us
  %.0.us = phi i64 [ %53, %internal_RSTRUCT_GET.exit.us ], [ 0, %rb_struct_members.exit ]
  %37 = load i64, ptr %2, align 8, !tbaa !11
  %38 = and i64 %37, 1040384
  %.not.i18.us = icmp eq i64 %38, 0
  br i1 %.not.i18.us, label %internal_RSTRUCT_LEN.exit20.us, label %internal_RSTRUCT_LEN.exit20.thread.us

internal_RSTRUCT_LEN.exit20.thread.us:            ; preds = %rb_struct_members.exit.split.us
  %39 = lshr i64 %37, 13
  %40 = and i64 %39, 127
  %41 = icmp samesign ult i64 %.0.us, %40
  br i1 %41, label %42, label %.split.us

42:                                               ; preds = %internal_RSTRUCT_LEN.exit20.thread.us
  %43 = tail call i64 @rb_ary_entry(i64 noundef %13, i64 noundef %.0.us) #20
  br label %internal_RSTRUCT_GET.exit.us

internal_RSTRUCT_LEN.exit20.us:                   ; preds = %rb_struct_members.exit.split.us
  %44 = load i64, ptr %35, align 8, !tbaa !13
  %45 = icmp slt i64 %.0.us, %44
  br i1 %45, label %46, label %.split.us

46:                                               ; preds = %internal_RSTRUCT_LEN.exit20.us
  %47 = tail call i64 @rb_ary_entry(i64 noundef %13, i64 noundef %.0.us) #20
  %48 = load ptr, ptr %36, align 8, !tbaa !13
  br label %internal_RSTRUCT_GET.exit.us

internal_RSTRUCT_GET.exit.us:                     ; preds = %46, %42
  %49 = phi i64 [ %43, %42 ], [ %47, %46 ]
  %.0.i.i22.us = phi ptr [ %35, %42 ], [ %48, %46 ]
  %50 = getelementptr i64, ptr %.0.i.i22.us, i64 %.0.us
  %51 = load i64, ptr %50, align 8, !tbaa !7
  %52 = tail call i64 @rb_hash_aset(i64 noundef %11, i64 noundef %49, i64 noundef %51) #19
  %53 = add nuw nsw i64 %.0.us, 1
  br label %rb_struct_members.exit.split.us, !llvm.loop !46

rb_struct_members.exit.split:                     ; preds = %rb_struct_members.exit, %internal_RSTRUCT_GET.exit
  %.0 = phi i64 [ %71, %internal_RSTRUCT_GET.exit ], [ 0, %rb_struct_members.exit ]
  %54 = load i64, ptr %2, align 8, !tbaa !11
  %55 = and i64 %54, 1040384
  %.not.i18 = icmp eq i64 %55, 0
  br i1 %.not.i18, label %internal_RSTRUCT_LEN.exit20, label %internal_RSTRUCT_LEN.exit20.thread

internal_RSTRUCT_LEN.exit20:                      ; preds = %rb_struct_members.exit.split
  %56 = load i64, ptr %35, align 8, !tbaa !13
  %57 = icmp slt i64 %.0, %56
  br i1 %57, label %63, label %.split.us

internal_RSTRUCT_LEN.exit20.thread:               ; preds = %rb_struct_members.exit.split
  %58 = lshr i64 %54, 13
  %59 = and i64 %58, 127
  %60 = icmp samesign ult i64 %.0, %59
  br i1 %60, label %61, label %.split.us

61:                                               ; preds = %internal_RSTRUCT_LEN.exit20.thread
  %62 = tail call i64 @rb_ary_entry(i64 noundef %13, i64 noundef %.0) #20
  br label %internal_RSTRUCT_GET.exit

63:                                               ; preds = %internal_RSTRUCT_LEN.exit20
  %64 = tail call i64 @rb_ary_entry(i64 noundef %13, i64 noundef %.0) #20
  %65 = load ptr, ptr %36, align 8, !tbaa !13
  br label %internal_RSTRUCT_GET.exit

internal_RSTRUCT_GET.exit:                        ; preds = %61, %63
  %66 = phi i64 [ %62, %61 ], [ %64, %63 ]
  %.0.i.i22 = phi ptr [ %35, %61 ], [ %65, %63 ]
  %67 = getelementptr i64, ptr %.0.i.i22, i64 %.0
  %68 = load i64, ptr %67, align 8, !tbaa !7
  %69 = tail call i64 (i32, ...) @rb_yield_values(i32 noundef 2, i64 noundef %66, i64 noundef %68) #19
  %70 = tail call i64 @rb_hash_set_pair(i64 noundef %11, i64 noundef %69) #19
  %71 = add nuw nsw i64 %.0, 1
  br label %rb_struct_members.exit.split, !llvm.loop !46

.split.us:                                        ; preds = %internal_RSTRUCT_LEN.exit20, %internal_RSTRUCT_LEN.exit20.thread, %internal_RSTRUCT_LEN.exit20.thread.us, %internal_RSTRUCT_LEN.exit20.us
  ret i64 %11
}